target datalayout = "e-m:e-p270:32:32-p271:32:32-p272:64:64-i64:64-i128:128-f80:128-n8:16:32:64-S128"
target triple = "x86_64-pc-linux-gnu"

%"class.duckdb_re2::StringPiece" = type { ptr, i64 }
%"class.std::reverse_iterator" = type { ptr }

; Function Attrs: inlinehint mustprogress nounwind uwtable
define linkonce_odr void @_ZSt9__advanceIPKclEvRT_T0_St26random_access_iterator_tag(ptr noundef nonnull align 8 dereferenceable(8) %0, i64 noundef %1) #2 comdat {
  %3 = alloca ptr, align 8
  %4 = alloca i64, align 8
  store ptr %0, ptr %3, align 8, !tbaa !28
  store i64 %1, ptr %4, align 8, !tbaa !10
  %5 = load i64, ptr %4, align 8, !tbaa !10
  %6 = call i1 @llvm.is.constant.i64(i64 %5)
  br i1 %6, label %7, label %14

7:                                                ; preds = %2
  %8 = load i64, ptr %4, align 8, !tbaa !10
  %9 = icmp eq i64 %8, 1
  br i1 %9, label %10, label %14

10:                                               ; preds = %7
  %11 = load ptr, ptr %3, align 8, !tbaa !28
  %12 = load ptr, ptr %11, align 8, !tbaa !8
  %13 = getelementptr inbounds nuw i8, ptr %12, i32 1
  store ptr %13, ptr %11, align 8, !tbaa !8
  br label %30

14:                                               ; preds = %7, %2
  %15 = load i64, ptr %4, align 8, !tbaa !10
  %16 = call i1 @llvm.is.constant.i64(i64 %15)
  br i1 %16, label %17, label %24

17:                                               ; preds = %14
  %18 = load i64, ptr %4, align 8, !tbaa !10
  %19 = icmp eq i64 %18, -1
  br i1 %19, label %20, label %24

20:                                               ; preds = %17
  %21 = load ptr, ptr %3, align 8, !tbaa !28
  %22 = load ptr, ptr %21, align 8, !tbaa !8
  %23 = getelementptr inbounds i8, ptr %22, i32 -1
  store ptr %23, ptr %21, align 8, !tbaa !8
  br label %29

24:                                               ; preds = %17, %14
  %25 = load i64, ptr %4, align 8, !tbaa !10
  %26 = load ptr, ptr %3, align 8, !tbaa !28
  %27 = load ptr, ptr %26, align 8, !tbaa !8
  %28 = getelementptr inbounds i8, ptr %27, i64 %25
  store ptr %28, ptr %26, align 8, !tbaa !8
  br label %29

29:                                               ; preds = %24, %20
  br label %30

30:                                               ; preds = %29, %10
  ret void
}

; Function Attrs: inlinehint mustprogress nounwind uwtable
define linkonce_odr noundef i64 @_ZSt10__distanceIPKcENSt15iterator_traitsIT_E15difference_typeES3_S3_St26random_access_iterator_tag(ptr noundef %0, ptr noundef %1) #2 comdat {
  %3 = alloca ptr, align 8
  %4 = alloca ptr, align 8
  store ptr %0, ptr %3, align 8, !tbaa !8
  store ptr %1, ptr %4, align 8, !tbaa !8
  %5 = load ptr, ptr %4, align 8, !tbaa !8
  %6 = load ptr, ptr %3, align 8, !tbaa !8
  %7 = ptrtoint ptr %5 to i64
  %8 = ptrtoint ptr %6 to i64
  %9 = sub i64 %7, %8
  ret i64 %9
}

; Function Attrs: inlinehint mustprogress uwtable
define linkonce_odr void @_ZSt7advanceIPKclEvRT_T0_(ptr noundef nonnull align 8 dereferenceable(8) %0, i64 noundef %1) #5 comdat {
  %3 = alloca ptr, align 8
  %4 = alloca i64, align 8
  %5 = alloca i64, align 8
  store ptr %0, ptr %3, align 8, !tbaa !28
  store i64 %1, ptr %4, align 8, !tbaa !10
  call void @llvm.lifetime.start.p0(i64 8, ptr %5) #8
  %6 = load i64, ptr %4, align 8, !tbaa !10
  store i64 %6, ptr %5, align 8, !tbaa !10
  %7 = load ptr, ptr %3, align 8, !tbaa !28
  %8 = load i64, ptr %5, align 8, !tbaa !10
  %9 = load ptr, ptr %3, align 8, !tbaa !28
  call void @_ZSt19__iterator_categoryIPKcENSt15iterator_traitsIT_E17iterator_categoryERKS3_(ptr noundef nonnull align 8 dereferenceable(8) %9)
  call void @_ZSt9__advanceIPKclEvRT_T0_St26random_access_iterator_tag(ptr noundef nonnull align 8 dereferenceable(8) %7, i64 noundef %8)
  call void @llvm.lifetime.end.p0(i64 8, ptr %5) #8
  ret void
}

; Function Attrs: inlinehint mustprogress uwtable
define linkonce_odr noundef i64 @_ZSt8distanceIPKcENSt15iterator_traitsIT_E15difference_typeES3_S3_(ptr noundef %0, ptr noundef %1) #5 comdat {
  %3 = alloca ptr, align 8
  %4 = alloca ptr, align 8
  store ptr %0, ptr %3, align 8, !tbaa !8
  store ptr %1, ptr %4, align 8, !tbaa !8
  %5 = load ptr, ptr %3, align 8, !tbaa !8
  %6 = load ptr, ptr %4, align 8, !tbaa !8
  call void @_ZSt19__iterator_categoryIPKcENSt15iterator_traitsIT_E17iterator_categoryERKS3_(ptr noundef nonnull align 8 dereferenceable(8) %3)
  %7 = call noundef i64 @_ZSt10__distanceIPKcENSt15iterator_traitsIT_E15difference_typeES3_S3_St26random_access_iterator_tag(ptr noundef %5, ptr noundef %6)
  ret i64 %7
}

; Function Attrs: mustprogress nounwind uwtable
define linkonce_odr noundef ptr @_ZNKSt16reverse_iteratorIPKcE4baseEv(ptr noundef nonnull align 8 dereferenceable(8) %0) #4 comdat align 2 {
  %2 = alloca ptr, align 8
  store ptr %0, ptr %2, align 8, !tbaa !39
  %3 = load ptr, ptr %2, align 8
  %4 = getelementptr inbounds nuw %"class.std::reverse_iterator", ptr %3, i32 0, i32 0
  %5 = load ptr, ptr %4, align 8, !tbaa !41
  ret ptr %5
}

; Function Attrs: inlinehint mustprogress nounwind uwtable
define linkonce_odr noundef zeroext i1 @_ZSteqIPKcEbRKSt16reverse_iteratorIT_ES6_(ptr noundef nonnull align 8 dereferenceable(8) %0, ptr noundef nonnull align 8 dereferenceable(8) %1) #2 comdat {
  %3 = alloca ptr, align 8
  %4 = alloca ptr, align 8
  store ptr %0, ptr %3, align 8, !tbaa !39
  store ptr %1, ptr %4, align 8, !tbaa !39
  %5 = load ptr, ptr %3, align 8, !tbaa !39
  %6 = call noundef ptr @_ZNKSt16reverse_iteratorIPKcE4baseEv(ptr noundef nonnull align 8 dereferenceable(8) %5) #8
  %7 = load ptr, ptr %4, align 8, !tbaa !39
  %8 = call noundef ptr @_ZNKSt16reverse_iteratorIPKcE4baseEv(ptr noundef nonnull align 8 dereferenceable(8) %7) #8
  %9 = icmp eq ptr %6, %8
  ret i1 %9
}

; Function Attrs: mustprogress nounwind uwtable
define linkonce_odr void @_ZNSt16reverse_iteratorIPKcEC2ERKS2_(ptr noundef nonnull align 8 dereferenceable(8) %0, ptr noundef nonnull align 8 dereferenceable(8) %1) unnamed_addr #4 comdat align 2 {
  %3 = alloca ptr, align 8
  %4 = alloca ptr, align 8
  store ptr %0, ptr %3, align 8, !tbaa !39
  store ptr %1, ptr %4, align 8, !tbaa !39
  %5 = load ptr, ptr %3, align 8
  %6 = getelementptr inbounds nuw %"class.std::reverse_iterator", ptr %5, i32 0, i32 0
  %7 = load ptr, ptr %4, align 8, !tbaa !39
  %8 = getelementptr inbounds nuw %"class.std::reverse_iterator", ptr %7, i32 0, i32 0
  %9 = load ptr, ptr %8, align 8, !tbaa !41
  store ptr %9, ptr %6, align 8, !tbaa !41
  ret void
}

; Function Attrs: mustprogress nounwind uwtable
define linkonce_odr void @_ZNSt16reverse_iteratorIPKcEC2ES1_(ptr noundef nonnull align 8 dereferenceable(8) %0, ptr noundef %1) unnamed_addr #4 comdat align 2 {
  %3 = alloca ptr, align 8
  %4 = alloca ptr, align 8
  store ptr %0, ptr %3, align 8, !tbaa !39
  store ptr %1, ptr %4, align 8, !tbaa !8
  %5 = load ptr, ptr %3, align 8
  %6 = getelementptr inbounds nuw %"class.std::reverse_iterator", ptr %5, i32 0, i32 0
  %7 = load ptr, ptr %4, align 8, !tbaa !8
  store ptr %7, ptr %6, align 8, !tbaa !41
  ret void
}

; Function Attrs: mustprogress uwtable
define linkonce_odr hidden noundef ptr @_ZSt10__find_endIPKcS1_N9__gnu_cxx5__ops19_Iter_equal_to_iterEET_S5_S5_T0_S6_St26bidirectional_iterator_tagS7_T1_(ptr noundef %0, ptr noundef %1, ptr noundef %2, ptr noundef %3) #0 comdat {
  %5 = alloca ptr, align 8
  %6 = alloca ptr, align 8
  %7 = alloca ptr, align 8
  %8 = alloca ptr, align 8
  %9 = alloca ptr, align 8
  %10 = alloca %"class.std::reverse_iterator", align 8
  %11 = alloca %"class.std::reverse_iterator", align 8
  %12 = alloca %"class.std::reverse_iterator", align 8
  %13 = alloca %"class.std::reverse_iterator", align 8
  %14 = alloca %"class.std::reverse_iterator", align 8
  %15 = alloca %"class.std::reverse_iterator", align 8
  %16 = alloca %"class.std::reverse_iterator", align 8
  %17 = alloca i32, align 4
  %18 = alloca ptr, align 8
  store ptr %0, ptr %6, align 8, !tbaa !8
  store ptr %1, ptr %7, align 8, !tbaa !8
  store ptr %2, ptr %8, align 8, !tbaa !8
  store ptr %3, ptr %9, align 8, !tbaa !8
  call void @llvm.lifetime.start.p0(i64 8, ptr %10) #8
  %19 = load ptr, ptr %6, align 8, !tbaa !8
  call void @_ZNSt16reverse_iteratorIPKcEC2ES1_(ptr noundef nonnull align 8 dereferenceable(8) %10, ptr noundef %19) #8
  call void @llvm.lifetime.start.p0(i64 8, ptr %11) #8
  %20 = load ptr, ptr %8, align 8, !tbaa !8
  call void @_ZNSt16reverse_iteratorIPKcEC2ES1_(ptr noundef nonnull align 8 dereferenceable(8) %11, ptr noundef %20) #8
  call void @llvm.lifetime.start.p0(i64 8, ptr %12) #8
  %21 = load ptr, ptr %7, align 8, !tbaa !8
  call void @_ZNSt16reverse_iteratorIPKcEC2ES1_(ptr noundef nonnull align 8 dereferenceable(8) %13, ptr noundef %21) #8
  call void @_ZNSt16reverse_iteratorIPKcEC2ERKS2_(ptr noundef nonnull align 8 dereferenceable(8) %14, ptr noundef nonnull align 8 dereferenceable(8) %10) #8
  %22 = load ptr, ptr %9, align 8, !tbaa !8
  call void @_ZNSt16reverse_iteratorIPKcEC2ES1_(ptr noundef nonnull align 8 dereferenceable(8) %15, ptr noundef %22) #8
  call void @_ZNSt16reverse_iteratorIPKcEC2ERKS2_(ptr noundef nonnull align 8 dereferenceable(8) %16, ptr noundef nonnull align 8 dereferenceable(8) %11) #8
  call void @_ZSt8__searchISt16reverse_iteratorIPKcES3_N9__gnu_cxx5__ops19_Iter_equal_to_iterEET_S7_S7_T0_S8_T1_(ptr dead_on_unwind writable sret(%"class.std::reverse_iterator") align 8 %12, ptr noundef %13, ptr noundef %14, ptr noundef %15, ptr noundef %16)
  %23 = call noundef zeroext i1 @_ZSteqIPKcEbRKSt16reverse_iteratorIT_ES6_(ptr noundef nonnull align 8 dereferenceable(8) %12, ptr noundef nonnull align 8 dereferenceable(8) %10)
  br i1 %23, label %24, label %26

24:                                               ; preds = %4
  %25 = load ptr, ptr %7, align 8, !tbaa !8
  store ptr %25, ptr %5, align 8
  store i32 1, ptr %17, align 4
  br label %33

26:                                               ; preds = %4
  call void @llvm.lifetime.start.p0(i64 8, ptr %18) #8
  %27 = call noundef ptr @_ZNKSt16reverse_iteratorIPKcE4baseEv(ptr noundef nonnull align 8 dereferenceable(8) %12) #8
  store ptr %27, ptr %18, align 8, !tbaa !8
  %28 = load ptr, ptr %8, align 8, !tbaa !8
  %29 = load ptr, ptr %9, align 8, !tbaa !8
  %30 = call noundef i64 @_ZSt8distanceIPKcENSt15iterator_traitsIT_E15difference_typeES3_S3_(ptr noundef %28, ptr noundef %29)
  %31 = sub nsw i64 0, %30
  call void @_ZSt7advanceIPKclEvRT_T0_(ptr noundef nonnull align 8 dereferenceable(8) %18, i64 noundef %31)
  %32 = load ptr, ptr %18, align 8, !tbaa !8
  store ptr %32, ptr %5, align 8
  store i32 1, ptr %17, align 4
  call void @llvm.lifetime.end.p0(i64 8, ptr %18) #8
  br label %33

33:                                               ; preds = %26, %24
  call void @llvm.lifetime.end.p0(i64 8, ptr %12) #8
  call void @llvm.lifetime.end.p0(i64 8, ptr %11) #8
  call void @llvm.lifetime.end.p0(i64 8, ptr %10) #8
  %34 = load ptr, ptr %5, align 8
  ret ptr %34
}

; Function Attrs: inlinehint mustprogress nounwind uwtable
define linkonce_odr hidden void @_ZN9__gnu_cxx5__ops20__iter_equal_to_iterEv() #2 comdat {
  ret void
}

; Function Attrs: inlinehint mustprogress nounwind uwtable
define linkonce_odr void @_ZSt19__iterator_categoryIPKcENSt15iterator_traitsIT_E17iterator_categoryERKS3_(ptr noundef nonnull align 8 dereferenceable(8) %0) #2 comdat {
  %2 = alloca ptr, align 8
  store ptr %0, ptr %2, align 8, !tbaa !28
  ret void
}

; Function Attrs: inlinehint mustprogress uwtable
define linkonce_odr noundef ptr @_ZSt8find_endIPKcS1_ET_S2_S2_T0_S3_(ptr noundef %0, ptr noundef %1, ptr noundef %2, ptr noundef %3) #5 comdat {
  %5 = alloca ptr, align 8
  %6 = alloca ptr, align 8
  %7 = alloca ptr, align 8
  %8 = alloca ptr, align 8
  store ptr %0, ptr %5, align 8, !tbaa !8
  store ptr %1, ptr %6, align 8, !tbaa !8
  store ptr %2, ptr %7, align 8, !tbaa !8
  store ptr %3, ptr %8, align 8, !tbaa !8
  %9 = load ptr, ptr %5, align 8, !tbaa !8
  %10 = load ptr, ptr %6, align 8, !tbaa !8
  %11 = load ptr, ptr %7, align 8, !tbaa !8
  %12 = load ptr, ptr %8, align 8, !tbaa !8
  call void @_ZSt19__iterator_categoryIPKcENSt15iterator_traitsIT_E17iterator_categoryERKS3_(ptr noundef nonnull align 8 dereferenceable(8) %5)
  call void @_ZSt19__iterator_categoryIPKcENSt15iterator_traitsIT_E17iterator_categoryERKS3_(ptr noundef nonnull align 8 dereferenceable(8) %7)
  call void @_ZN9__gnu_cxx5__ops20__iter_equal_to_iterEv()
  %13 = call noundef ptr @_ZSt10__find_endIPKcS1_N9__gnu_cxx5__ops19_Iter_equal_to_iterEET_S5_S5_T0_S6_St26bidirectional_iterator_tagS7_T1_(ptr noundef %9, ptr noundef %10, ptr noundef %11, ptr noundef %12)
  ret ptr %13
}

; Function Attrs: inlinehint mustprogress nounwind uwtable
define linkonce_odr noundef nonnull align 8 dereferenceable(8) ptr @_ZSt3minImERKT_S2_S2_(ptr noundef nonnull align 8 dereferenceable(8) %0, ptr noundef nonnull align 8 dereferenceable(8) %1) #2 comdat {
  %3 = alloca ptr, align 8
  %4 = alloca ptr, align 8
  %5 = alloca ptr, align 8
  store ptr %0, ptr %4, align 8, !tbaa !15
  store ptr %1, ptr %5, align 8, !tbaa !15
  %6 = load ptr, ptr %5, align 8, !tbaa !15
  %7 = load i64, ptr %6, align 8, !tbaa !10
  %8 = load ptr, ptr %4, align 8, !tbaa !15
  %9 = load i64, ptr %8, align 8, !tbaa !10
  %10 = icmp ult i64 %7, %9
  br i1 %10, label %11, label %13

11:                                               ; preds = %2
  %12 = load ptr, ptr %5, align 8, !tbaa !15
  store ptr %12, ptr %3, align 8
  br label %15

13:                                               ; preds = %2
  %14 = load ptr, ptr %4, align 8, !tbaa !15
  store ptr %14, ptr %3, align 8
  br label %15

15:                                               ; preds = %13, %11
  %16 = load ptr, ptr %3, align 8
  ret ptr %16
}

; Function Attrs: mustprogress uwtable
define hidden noundef i64 @_ZNK10duckdb_re211StringPiece5rfindERKS0_m(ptr noundef nonnull align 8 dereferenceable(16) %0, ptr noundef nonnull align 8 dereferenceable(16) %1, i64 noundef %2) #0 align 2 {
  %4 = alloca i64, align 8
  %5 = alloca ptr, align 8
  %6 = alloca ptr, align 8
  %7 = alloca i64, align 8
  %8 = alloca ptr, align 8
  %9 = alloca i64, align 8
  %10 = alloca ptr, align 8
  store ptr %0, ptr %5, align 8, !tbaa !3
  store ptr %1, ptr %6, align 8, !tbaa !3
  store i64 %2, ptr %7, align 8, !tbaa !10
  %11 = load ptr, ptr %5, align 8
  %12 = getelementptr inbounds nuw %"class.duckdb_re2::StringPiece", ptr %11, i32 0, i32 1
  %13 = load i64, ptr %12, align 8, !tbaa !12
  %14 = load ptr, ptr %6, align 8, !tbaa !3
  %15 = getelementptr inbounds nuw %"class.duckdb_re2::StringPiece", ptr %14, i32 0, i32 1
  %16 = load i64, ptr %15, align 8, !tbaa !12
  %17 = icmp ult i64 %13, %16
  br i1 %17, label %18, label %19

18:                                               ; preds = %3
  store i64 -1, ptr %4, align 8
  br label %71

19:                                               ; preds = %3
  %20 = load ptr, ptr %6, align 8, !tbaa !3
  %21 = getelementptr inbounds nuw %"class.duckdb_re2::StringPiece", ptr %20, i32 0, i32 1
  %22 = load i64, ptr %21, align 8, !tbaa !12
  %23 = icmp eq i64 %22, 0
  br i1 %23, label %24, label %28

24:                                               ; preds = %19
  %25 = getelementptr inbounds nuw %"class.duckdb_re2::StringPiece", ptr %11, i32 0, i32 1
  %26 = call noundef nonnull align 8 dereferenceable(8) ptr @_ZSt3minImERKT_S2_S2_(ptr noundef nonnull align 8 dereferenceable(8) %25, ptr noundef nonnull align 8 dereferenceable(8) %7)
  %27 = load i64, ptr %26, align 8, !tbaa !10
  store i64 %27, ptr %4, align 8
  br label %71

28:                                               ; preds = %19
  call void @llvm.lifetime.start.p0(i64 8, ptr %8) #8
  %29 = getelementptr inbounds nuw %"class.duckdb_re2::StringPiece", ptr %11, i32 0, i32 0
  %30 = load ptr, ptr %29, align 8, !tbaa !14
  call void @llvm.lifetime.start.p0(i64 8, ptr %9) #8
  %31 = getelementptr inbounds nuw %"class.duckdb_re2::StringPiece", ptr %11, i32 0, i32 1
  %32 = load i64, ptr %31, align 8, !tbaa !12
  %33 = load ptr, ptr %6, align 8, !tbaa !3
  %34 = getelementptr inbounds nuw %"class.duckdb_re2::StringPiece", ptr %33, i32 0, i32 1
  %35 = load i64, ptr %34, align 8, !tbaa !12
  %36 = sub i64 %32, %35
  store i64 %36, ptr %9, align 8, !tbaa !10
  %37 = call noundef nonnull align 8 dereferenceable(8) ptr @_ZSt3minImERKT_S2_S2_(ptr noundef nonnull align 8 dereferenceable(8) %9, ptr noundef nonnull align 8 dereferenceable(8) %7)
  %38 = load i64, ptr %37, align 8, !tbaa !10
  %39 = getelementptr inbounds nuw i8, ptr %30, i64 %38
  %40 = load ptr, ptr %6, align 8, !tbaa !3
  %41 = getelementptr inbounds nuw %"class.duckdb_re2::StringPiece", ptr %40, i32 0, i32 1
  %42 = load i64, ptr %41, align 8, !tbaa !12
  %43 = getelementptr inbounds nuw i8, ptr %39, i64 %42
  call void @llvm.lifetime.end.p0(i64 8, ptr %9) #8
  store ptr %43, ptr %8, align 8, !tbaa !8
  call void @llvm.lifetime.start.p0(i64 8, ptr %10) #8
  %44 = getelementptr inbounds nuw %"class.duckdb_re2::StringPiece", ptr %11, i32 0, i32 0
  %45 = load ptr, ptr %44, align 8, !tbaa !14
  %46 = load ptr, ptr %8, align 8, !tbaa !8
  %47 = load ptr, ptr %6, align 8, !tbaa !3
  %48 = getelementptr inbounds nuw %"class.duckdb_re2::StringPiece", ptr %47, i32 0, i32 0
  %49 = load ptr, ptr %48, align 8, !tbaa !14
  %50 = load ptr, ptr %6, align 8, !tbaa !3
  %51 = getelementptr inbounds nuw %"class.duckdb_re2::StringPiece", ptr %50, i32 0, i32 0
  %52 = load ptr, ptr %51, align 8, !tbaa !14
  %53 = load ptr, ptr %6, align 8, !tbaa !3
  %54 = getelementptr inbounds nuw %"class.duckdb_re2::StringPiece", ptr %53, i32 0, i32 1
  %55 = load i64, ptr %54, align 8, !tbaa !12
  %56 = getelementptr inbounds nuw i8, ptr %52, i64 %55
  %57 = call noundef ptr @_ZSt8find_endIPKcS1_ET_S2_S2_T0_S3_(ptr noundef %45, ptr noundef %46, ptr noundef %49, ptr noundef %56)
  store ptr %57, ptr %10, align 8, !tbaa !8
  %58 = load ptr, ptr %10, align 8, !tbaa !8
  %59 = load ptr, ptr %8, align 8, !tbaa !8
  %60 = icmp ne ptr %58, %59
  br i1 %60, label %61, label %68

61:                                               ; preds = %28
  %62 = load ptr, ptr %10, align 8, !tbaa !8
  %63 = getelementptr inbounds nuw %"class.duckdb_re2::StringPiece", ptr %11, i32 0, i32 0
  %64 = load ptr, ptr %63, align 8, !tbaa !14
  %65 = ptrtoint ptr %62 to i64
  %66 = ptrtoint ptr %64 to i64
  %67 = sub i64 %65, %66
  br label %69

68:                                               ; preds = %28
  br label %69

69:                                               ; preds = %68, %61
  %70 = phi i64 [ %67, %61 ], [ -1, %68 ]
  store i64 %70, ptr %4, align 8
  call void @llvm.lifetime.end.p0(i64 8, ptr %10) #8
  call void @llvm.lifetime.end.p0(i64 8, ptr %8) #8
  br label %71

71:                                               ; preds = %69, %24, %18
  %72 = load i64, ptr %4, align 8
  ret i64 %72
}